; Function Attrs: mustprogress nofree norecurse nosync nounwind memory(readwrite, inaccessiblemem: none) uwtable
define noundef double @_ZN8QuantLib12Distribution15confidenceLevelEd(ptr nocapture noundef nonnull align 8 dereferenceable(225) %this, double noundef %quantil) local_unnamed_addr #6 align 2 {
entry:
  tail call void @_ZN8QuantLib12Distribution9normalizeEv(ptr noundef nonnull align 8 dereferenceable(225) %this)
  %0 = load i32, ptr %this, align 8, !tbaa !3
  %cmp13 = icmp sgt i32 %0, 0
  br i1 %cmp13, label %for.body.lr.ph, label %for.end

for.body.lr.ph:                                   ; preds = %entry
  %cumulativeDensity_ = getelementptr inbounds nuw i8, ptr %this, i64 120
  %1 = load ptr, ptr %cumulativeDensity_, align 8, !tbaa !25
  %wide.trip.count = zext nneg i32 %0 to i64
  br label %for.body

for.cond:                                         ; preds = %for.body
  %indvars.iv.next = add nuw nsw i64 %indvars.iv, 1
  %exitcond.not = icmp eq i64 %indvars.iv.next, %wide.trip.count
  br i1 %exitcond.not, label %for.end, label %for.body, !llvm.loop !53

for.body:                                         ; preds = %for.body.lr.ph, %for.cond
  %indvars.iv = phi i64 [ 0, %for.body.lr.ph ], [ %indvars.iv.next, %for.cond ]
  %add.ptr.i = getelementptr inbounds nuw double, ptr %1, i64 %indvars.iv
  %2 = load double, ptr %add.ptr.i, align 8, !tbaa !27
  %cmp2 = fcmp ogt double %2, %quantil
  br i1 %cmp2, label %cleanup, label %for.cond

cleanup:                                          ; preds = %for.body
  %x_ = getelementptr inbounds nuw i8, ptr %this, i64 48
  %3 = load ptr, ptr %x_, align 8, !tbaa !25
  %add.ptr.i5 = getelementptr inbounds nuw double, ptr %3, i64 %indvars.iv
  %dx_ = getelementptr inbounds nuw i8, ptr %this, i64 72
  %4 = load ptr, ptr %dx_, align 8, !tbaa !25
  %add.ptr.i6 = getelementptr inbounds nuw double, ptr %4, i64 %indvars.iv
  br label %return

for.end:                                          ; preds = %for.cond, %entry
  %_M_finish.i.i = getelementptr inbounds nuw i8, ptr %this, i64 56
  %5 = load ptr, ptr %_M_finish.i.i, align 8, !tbaa !31
  %add.ptr.i.i = getelementptr inbounds i8, ptr %5, i64 -8
  %_M_finish.i.i7 = getelementptr inbounds nuw i8, ptr %this, i64 80
  %6 = load ptr, ptr %_M_finish.i.i7, align 8, !tbaa !31
  %add.ptr.i.i8 = getelementptr inbounds i8, ptr %6, i64 -8
  br label %return

return:                                           ; preds = %cleanup, %for.end
  %add.ptr.i6.sink = phi ptr [ %add.ptr.i6, %cleanup ], [ %add.ptr.i.i8, %for.end ]
  %.sink.in = phi ptr [ %add.ptr.i5, %cleanup ], [ %add.ptr.i.i, %for.end ]
  %.sink = load double, ptr %.sink.in, align 8, !tbaa !27
  %7 = load double, ptr %add.ptr.i6.sink, align 8, !tbaa !27
  %add = fadd double %.sink, %7
  ret double %add
}